; Function Attrs: nounwind sspstrong uwtable
define internal range(i64 1, 8589934592) i64 @ancillary_ipv6_pktinfo_ifindex(i64 noundef %0) #0 {
  %2 = alloca %struct.in6_pktinfo, align 4
  %3 = alloca %struct.sockaddr_in6, align 4
  call void @llvm.lifetime.start.p0(i64 20, ptr nonnull %2) #10
  call void @llvm.lifetime.start.p0(i64 28, ptr nonnull %3) #10
  call fastcc void @extract_ipv6_pktinfo(i64 noundef %0, ptr noundef %2, ptr noundef %3)
  %4 = getelementptr inbounds nuw i8, ptr %2, i64 16
  %5 = load i32, ptr %4, align 4, !tbaa !138
  %6 = zext i32 %5 to i64
  %7 = shl nuw nsw i64 %6, 1
  %8 = or disjoint i64 %7, 1
  call void @llvm.lifetime.end.p0(i64 28, ptr nonnull %3) #10
  call void @llvm.lifetime.end.p0(i64 20, ptr nonnull %2) #10
  ret i64 %8
}